; Function Attrs: nounwind uwtable
define zeroext range(i8 0, 2) i8 @l_Lean_PersistentHashMap_containsAtAux___at_Lean_LocalContext_contains___spec__3(ptr noundef readonly captures(none) %0, ptr readnone captures(none) %1, ptr readnone captures(none) %2, ptr noundef %3, ptr noundef %4) local_unnamed_addr #2 {
  %6 = getelementptr i8, ptr %0, i64 8
  %7 = getelementptr inbounds nuw i8, ptr %0, i64 24
  br label %lean_dec.exit27

lean_dec.exit27:                                  ; preds = %lean_dec.exit27.backedge, %5
  %.020 = phi ptr [ %3, %5 ], [ %.020.be, %lean_dec.exit27.backedge ]
  %.val = load i64, ptr %6, align 8, !tbaa !12
  %8 = shl i64 %.val, 1
  %9 = or disjoint i64 %8, 1
  %10 = inttoptr i64 %9 to ptr
  %11 = ptrtoint ptr %.020 to i64
  %12 = and i64 %11, 1
  %.not = icmp eq i64 %12, 0
  br i1 %.not, label %lean_dec.exit28.thread, label %lean_dec.exit28, !prof !17

lean_dec.exit28:                                  ; preds = %lean_dec.exit27
  %.not49 = icmp ult ptr %.020, %10
  br i1 %.not49, label %20, label %.loopexit

lean_dec.exit28.thread:                           ; preds = %lean_dec.exit27
  %13 = tail call zeroext i1 @lean_nat_big_lt(ptr noundef %.020, ptr noundef nonnull %10) #8
  br i1 %13, label %20, label %.thread

.thread:                                          ; preds = %lean_dec.exit28.thread
  %14 = load i32, ptr %.020, align 4, !tbaa !4
  %15 = icmp sgt i32 %14, 1
  br i1 %15, label %16, label %18, !prof !11

16:                                               ; preds = %.thread
  %17 = add nsw i32 %14, -1
  store i32 %17, ptr %.020, align 4, !tbaa !4
  br label %.loopexit

18:                                               ; preds = %.thread
  %.not.i29 = icmp eq i32 %14, 0
  br i1 %.not.i29, label %.loopexit, label %19

19:                                               ; preds = %18
  tail call void @lean_dec_ref_cold(ptr noundef nonnull %.020) #8
  br label %.loopexit

20:                                               ; preds = %lean_dec.exit28.thread, %lean_dec.exit28
  %21 = lshr i64 %11, 1
  %22 = getelementptr inbounds nuw [0 x ptr], ptr %7, i64 0, i64 %21
  %23 = load ptr, ptr %22, align 8, !tbaa !9
  %24 = ptrtoint ptr %23 to i64
  %25 = and i64 %24, 1
  %.not.i.i = icmp eq i64 %25, 0
  br i1 %.not.i.i, label %26, label %lean_array_fget.exit

26:                                               ; preds = %20
  %.val.i.i.i = load i32, ptr %23, align 4, !tbaa !4
  %27 = icmp sgt i32 %.val.i.i.i, 0
  br i1 %27, label %28, label %30, !prof !11

28:                                               ; preds = %26
  %29 = add nuw i32 %.val.i.i.i, 1
  store i32 %29, ptr %23, align 4, !tbaa !4
  br label %33

30:                                               ; preds = %26
  %.not.i.i.i = icmp eq i32 %.val.i.i.i, 0
  br i1 %.not.i.i.i, label %33, label %31

31:                                               ; preds = %30
  tail call void @lean_inc_ref_cold(ptr noundef nonnull %23) #8
  br label %33

lean_array_fget.exit:                             ; preds = %20
  %32 = tail call zeroext i8 @lean_name_eq(ptr noundef %4, ptr noundef %23) #8
  br label %lean_dec.exit26

33:                                               ; preds = %28, %30, %31
  %34 = tail call zeroext i8 @lean_name_eq(ptr noundef %4, ptr noundef nonnull %23) #8
  %35 = load i32, ptr %23, align 4, !tbaa !4
  %36 = icmp sgt i32 %35, 1
  br i1 %36, label %37, label %39, !prof !11

37:                                               ; preds = %33
  %38 = add nsw i32 %35, -1
  store i32 %38, ptr %23, align 4, !tbaa !4
  br label %lean_dec.exit26

39:                                               ; preds = %33
  %.not.i31 = icmp eq i32 %35, 0
  br i1 %.not.i31, label %lean_dec.exit26, label %40

40:                                               ; preds = %39
  tail call void @lean_dec_ref_cold(ptr noundef nonnull %23) #8
  br label %lean_dec.exit26

lean_dec.exit26:                                  ; preds = %40, %39, %37, %lean_array_fget.exit
  %41 = phi i8 [ %32, %lean_array_fget.exit ], [ %34, %37 ], [ %34, %39 ], [ %34, %40 ]
  %42 = icmp eq i8 %41, 0
  br i1 %42, label %43, label %61

43:                                               ; preds = %lean_dec.exit26
  br i1 %.not, label %53, label %44, !prof !17

44:                                               ; preds = %43
  %45 = add nuw i64 %21, 1
  %46 = icmp sgt i64 %45, -1
  br i1 %46, label %47, label %51, !prof !11

47:                                               ; preds = %44
  %48 = shl nuw i64 %45, 1
  %49 = or disjoint i64 %48, 1
  %50 = inttoptr i64 %49 to ptr
  br label %lean_dec.exit27.backedge

lean_dec.exit27.backedge:                         ; preds = %47, %51, %57, %59, %60
  %.020.be = phi ptr [ %54, %57 ], [ %54, %59 ], [ %54, %60 ], [ %52, %51 ], [ %50, %47 ]
  br label %lean_dec.exit27

51:                                               ; preds = %44
  %52 = tail call ptr @lean_big_usize_to_nat(i64 noundef %45) #8
  br label %lean_dec.exit27.backedge

53:                                               ; preds = %43
  %54 = tail call ptr @lean_nat_big_add(ptr noundef %.020, ptr noundef nonnull inttoptr (i64 3 to ptr)) #8
  %55 = load i32, ptr %.020, align 4, !tbaa !4
  %56 = icmp sgt i32 %55, 1
  br i1 %56, label %57, label %59, !prof !11

57:                                               ; preds = %53
  %58 = add nsw i32 %55, -1
  store i32 %58, ptr %.020, align 4, !tbaa !4
  br label %lean_dec.exit27.backedge

59:                                               ; preds = %53
  %.not.i33 = icmp eq i32 %55, 0
  br i1 %.not.i33, label %lean_dec.exit27.backedge, label %60

60:                                               ; preds = %59
  tail call void @lean_dec_ref_cold(ptr noundef nonnull %.020) #8
  br label %lean_dec.exit27.backedge

61:                                               ; preds = %lean_dec.exit26
  br i1 %.not, label %62, label %.loopexit

62:                                               ; preds = %61
  %63 = load i32, ptr %.020, align 4, !tbaa !4
  %64 = icmp sgt i32 %63, 1
  br i1 %64, label %65, label %67, !prof !11

65:                                               ; preds = %62
  %66 = add nsw i32 %63, -1
  store i32 %66, ptr %.020, align 4, !tbaa !4
  br label %.loopexit

67:                                               ; preds = %62
  %.not.i35 = icmp eq i32 %63, 0
  br i1 %.not.i35, label %.loopexit, label %68

68:                                               ; preds = %67
  tail call void @lean_dec_ref_cold(ptr noundef nonnull %.020) #8
  br label %.loopexit

.loopexit:                                        ; preds = %lean_dec.exit28, %19, %18, %16, %68, %67, %65, %61
  %.1.ph = phi i8 [ 1, %61 ], [ 1, %65 ], [ 1, %67 ], [ 1, %68 ], [ 0, %16 ], [ 0, %18 ], [ 0, %19 ], [ 0, %lean_dec.exit28 ]
  ret i8 %.1.ph
}